target datalayout = "e-m:e-p270:32:32-p271:32:32-p272:64:64-i64:64-i128:128-f80:128-n8:16:32:64-S128"
target triple = "x86_64-unknown-linux-gnu"

%"class.sat::literal" = type { i32 }
%"class.sat::lookahead" = type { ptr, i32, %class.reslimit, %"struct.sat::lookahead::config", double, double, double, %class.svector.1, %class.svector.1, %class.svector.3, %class.vector.5, %class.svector.3, %class.svector.3, %class.vector.6, %class.svector.3, %class.small_object_allocator, %class.vector.7, %class.ptr_vector.8, %class.svector.3, i32, %class.svector.3, i32, %class.svector.3, i8, %class.svector.3, %class.vector.10, ptr, %class.svector.11, i32, i32, %class.svector.3, i32, i32, %class.vector.13, %class.svector.14, double, %class.svector.1, i32, i64, %class.svector.16, i32, %class.indexed_uint_set, i32, i32, %"struct.sat::lookahead::stats", %class.svector.18, %"struct.sat::lookahead::cube_state", i32, %class.svector.22, %class.tracked_uint_set, %"class.sat::literal", i32, i32, %"class.sat::literal", %class.vector.26, %"class.sat::literal", %class.svector.27 }
%class.reslimit = type { %"struct.std::atomic", i8, i64, i64, %class.svector, %class.ptr_vector }
%"struct.std::atomic" = type { %"struct.std::__atomic_base" }
%"struct.std::__atomic_base" = type { i32 }
%class.svector = type { %class.vector }
%class.vector = type { ptr }
%class.ptr_vector = type { %class.vector.0 }
%class.vector.0 = type { ptr }
%"struct.sat::lookahead::config" = type { double, double, double, i32, i32, i8, i32, double, i32, i32, i32, i32, i32, double, double, double, double, double }
%class.vector.5 = type { ptr }
%class.vector.6 = type { ptr }
%class.small_object_allocator = type { [32 x ptr], [32 x ptr], i64 }
%class.vector.7 = type { ptr }
%class.ptr_vector.8 = type { %class.vector.9 }
%class.vector.9 = type { ptr }
%class.vector.10 = type { ptr }
%class.svector.11 = type { %class.vector.12 }
%class.vector.12 = type { ptr }
%class.svector.3 = type { %class.vector.4 }
%class.vector.4 = type { ptr }
%class.vector.13 = type { ptr }
%class.svector.14 = type { %class.vector.15 }
%class.vector.15 = type { ptr }
%class.svector.1 = type { %class.vector.2 }
%class.vector.2 = type { ptr }
%class.svector.16 = type { %class.vector.17 }
%class.vector.17 = type { ptr }
%class.indexed_uint_set = type { i32, %class.svector.3, %class.svector.3 }
%"struct.sat::lookahead::stats" = type { i32, i32, i32, i32, i32, i32, i32, i32 }
%class.svector.18 = type { %class.vector.19 }
%class.vector.19 = type { ptr }
%"struct.sat::lookahead::cube_state" = type <{ i8, [7 x i8], %class.svector.20, %class.svector.1, double, double, i32, i32, i32, [4 x i8] }>
%class.svector.20 = type { %class.vector.21 }
%class.vector.21 = type { ptr }
%class.svector.22 = type { %class.vector.23 }
%class.vector.23 = type { ptr }
%class.tracked_uint_set = type { %class.svector.24, %class.svector.3 }
%class.svector.24 = type { %class.vector.25 }
%class.vector.25 = type { ptr }
%class.vector.26 = type { ptr }
%class.svector.27 = type { %class.vector.28 }
%class.vector.28 = type { ptr }

; Function Attrs: mustprogress nounwind uwtable
define linkonce_odr hidden noundef i32 @_ZNK16indexed_uint_set4sizeEv(ptr noundef nonnull align 8 dereferenceable(24) %this) #4 comdat align 2 {
entry:
  %this.addr = alloca ptr, align 8
  store ptr %this, ptr %this.addr, align 8
  %this1 = load ptr, ptr %this.addr, align 8
  %m_size = getelementptr inbounds %class.indexed_uint_set, ptr %this1, i32 0, i32 0
  %0 = load i32, ptr %m_size, align 8
  ret i32 %0
}

; Function Attrs: mustprogress uwtable
define hidden noundef zeroext i1 @_ZN3sat9lookahead13should_cutoffEj(ptr noundef nonnull align 8 dereferenceable(1160) %this, i32 noundef %depth) #5 align 2 {
entry:
  %this.addr = alloca ptr, align 8
  %depth.addr = alloca i32, align 4
  store ptr %this, ptr %this.addr, align 8
  store i32 %depth, ptr %depth.addr, align 4
  %this1 = load ptr, ptr %this.addr, align 8
  %0 = load i32, ptr %depth.addr, align 4
  %cmp = icmp ugt i32 %0, 0
  br i1 %cmp, label %land.rhs, label %land.end36

land.rhs:                                         ; preds = %entry
  %m_config = getelementptr inbounds %"class.sat::lookahead", ptr %this1, i32 0, i32 3
  %m_cube_cutoff = getelementptr inbounds %"struct.sat::lookahead::config", ptr %m_config, i32 0, i32 11
  %1 = load i32, ptr %m_cube_cutoff, align 4
  %cmp2 = icmp eq i32 %1, 0
  br i1 %cmp2, label %land.lhs.true, label %lor.lhs.false

land.lhs.true:                                    ; preds = %land.rhs
  %2 = load i32, ptr %depth.addr, align 4
  %m_config3 = getelementptr inbounds %"class.sat::lookahead", ptr %this1, i32 0, i32 3
  %m_cube_depth = getelementptr inbounds %"struct.sat::lookahead::config", ptr %m_config3, i32 0, i32 12
  %3 = load i32, ptr %m_cube_depth, align 8
  %cmp4 = icmp eq i32 %2, %3
  br i1 %cmp4, label %lor.end, label %lor.lhs.false

lor.lhs.false:                                    ; preds = %land.lhs.true, %land.rhs
  %m_config5 = getelementptr inbounds %"class.sat::lookahead", ptr %this1, i32 0, i32 3
  %m_cube_cutoff6 = getelementptr inbounds %"struct.sat::lookahead::config", ptr %m_config5, i32 0, i32 11
  %4 = load i32, ptr %m_cube_cutoff6, align 4
  %cmp7 = icmp eq i32 %4, 1
  br i1 %cmp7, label %land.lhs.true8, label %lor.lhs.false12

land.lhs.true8:                                   ; preds = %lor.lhs.false
  %m_freevars = getelementptr inbounds %"class.sat::lookahead", ptr %this1, i32 0, i32 41
  %call = call noundef i32 @_ZNK16indexed_uint_set4sizeEv(ptr noundef nonnull align 8 dereferenceable(24) %m_freevars)
  %conv = uitofp i32 %call to double
  %m_init_freevars = getelementptr inbounds %"class.sat::lookahead", ptr %this1, i32 0, i32 42
  %5 = load i32, ptr %m_init_freevars, align 8
  %conv9 = uitofp i32 %5 to double
  %m_config10 = getelementptr inbounds %"class.sat::lookahead", ptr %this1, i32 0, i32 3
  %m_cube_freevars = getelementptr inbounds %"struct.sat::lookahead::config", ptr %m_config10, i32 0, i32 14
  %6 = load double, ptr %m_cube_freevars, align 8
  %mul = fmul double %conv9, %6
  %cmp11 = fcmp ole double %conv, %mul
  br i1 %cmp11, label %lor.end, label %lor.lhs.false12

lor.lhs.false12:                                  ; preds = %land.lhs.true8, %lor.lhs.false
  %m_config13 = getelementptr inbounds %"class.sat::lookahead", ptr %this1, i32 0, i32 3
  %m_cube_cutoff14 = getelementptr inbounds %"struct.sat::lookahead::config", ptr %m_config13, i32 0, i32 11
  %7 = load i32, ptr %m_cube_cutoff14, align 4
  %cmp15 = icmp eq i32 %7, 2
  br i1 %cmp15, label %land.lhs.true16, label %lor.lhs.false20

land.lhs.true16:                                  ; preds = %lor.lhs.false12
  %call17 = call noundef double @_ZN3sat9lookahead9psat_heurEv(ptr noundef nonnull align 8 dereferenceable(1160) %this1)
  %m_config18 = getelementptr inbounds %"class.sat::lookahead", ptr %this1, i32 0, i32 3
  %m_cube_psat_trigger = getelementptr inbounds %"struct.sat::lookahead::config", ptr %m_config18, i32 0, i32 17
  %8 = load double, ptr %m_cube_psat_trigger, align 8
  %cmp19 = fcmp oge double %call17, %8
  br i1 %cmp19, label %lor.end, label %lor.lhs.false20

lor.lhs.false20:                                  ; preds = %land.lhs.true16, %lor.lhs.false12
  %m_config21 = getelementptr inbounds %"class.sat::lookahead", ptr %this1, i32 0, i32 3
  %m_cube_cutoff22 = getelementptr inbounds %"struct.sat::lookahead::config", ptr %m_config21, i32 0, i32 11
  %9 = load i32, ptr %m_cube_cutoff22, align 4
  %cmp23 = icmp eq i32 %9, 3
  br i1 %cmp23, label %land.lhs.true24, label %lor.rhs

land.lhs.true24:                                  ; preds = %lor.lhs.false20
  %m_freevars25 = getelementptr inbounds %"class.sat::lookahead", ptr %this1, i32 0, i32 41
  %call26 = call noundef i32 @_ZNK16indexed_uint_set4sizeEv(ptr noundef nonnull align 8 dereferenceable(24) %m_freevars25)
  %conv27 = uitofp i32 %call26 to double
  %m_cube_state = getelementptr inbounds %"class.sat::lookahead", ptr %this1, i32 0, i32 46
  %m_freevars_threshold = getelementptr inbounds %"struct.sat::lookahead::cube_state", ptr %m_cube_state, i32 0, i32 4
  %10 = load double, ptr %m_freevars_threshold, align 8
  %cmp28 = fcmp olt double %conv27, %10
  br i1 %cmp28, label %lor.end, label %lor.rhs

lor.rhs:                                          ; preds = %land.lhs.true24, %lor.lhs.false20
  %m_config29 = getelementptr inbounds %"class.sat::lookahead", ptr %this1, i32 0, i32 3
  %m_cube_cutoff30 = getelementptr inbounds %"struct.sat::lookahead::config", ptr %m_config29, i32 0, i32 11
  %11 = load i32, ptr %m_cube_cutoff30, align 4
  %cmp31 = icmp eq i32 %11, 4
  br i1 %cmp31, label %land.rhs32, label %land.end

land.rhs32:                                       ; preds = %lor.rhs
  %call33 = call noundef double @_ZN3sat9lookahead9psat_heurEv(ptr noundef nonnull align 8 dereferenceable(1160) %this1)
  %m_cube_state34 = getelementptr inbounds %"class.sat::lookahead", ptr %this1, i32 0, i32 46
  %m_psat_threshold = getelementptr inbounds %"struct.sat::lookahead::cube_state", ptr %m_cube_state34, i32 0, i32 5
  %12 = load double, ptr %m_psat_threshold, align 8
  %cmp35 = fcmp oge double %call33, %12
  br label %land.end

land.end:                                         ; preds = %land.rhs32, %lor.rhs
  %13 = phi i1 [ false, %lor.rhs ], [ %cmp35, %land.rhs32 ]
  br label %lor.end

lor.end:                                          ; preds = %land.end, %land.lhs.true24, %land.lhs.true16, %land.lhs.true8, %land.lhs.true
  %14 = phi i1 [ true, %land.lhs.true24 ], [ true, %land.lhs.true16 ], [ true, %land.lhs.true8 ], [ true, %land.lhs.true ], [ %13, %land.end ]
  br label %land.end36

land.end36:                                       ; preds = %lor.end, %entry
  %15 = phi i1 [ false, %entry ], [ %14, %lor.end ]
  ret i1 %15
}