; Function Attrs: mustprogress uwtable
define hidden noundef zeroext i1 @_ZN3sat9lookahead13should_cutoffEj(ptr nocapture noundef nonnull readonly align 8 dereferenceable(1160) %this, i32 noundef %depth) local_unnamed_addr #3 align 2 {
entry:
  %cmp.not = icmp eq i32 %depth, 0
  br i1 %cmp.not, label %land.end36, label %land.rhs

land.rhs:                                         ; preds = %entry
  %m_cube_cutoff = getelementptr inbounds i8, ptr %this, i64 116
  %0 = load i32, ptr %m_cube_cutoff, align 4
  %cmp2 = icmp eq i32 %0, 0
  %m_cube_depth = getelementptr inbounds i8, ptr %this, i64 120
  %1 = load i32, ptr %m_cube_depth, align 8
  %cmp4 = icmp eq i32 %1, %depth
  %or.cond = select i1 %cmp2, i1 %cmp4, i1 false
  br i1 %or.cond, label %land.end36, label %lor.lhs.false

lor.lhs.false:                                    ; preds = %land.rhs
  switch i32 %0, label %lor.lhs.false20 [
    i32 1, label %land.lhs.true8
    i32 2, label %land.lhs.true16
  ]

land.lhs.true8:                                   ; preds = %lor.lhs.false
  %m_freevars = getelementptr inbounds i8, ptr %this, i64 960
  %2 = load i32, ptr %m_freevars, align 8
  %conv = uitofp i32 %2 to double
  %m_init_freevars = getelementptr inbounds i8, ptr %this, i64 984
  %3 = load i32, ptr %m_init_freevars, align 8
  %conv9 = uitofp i32 %3 to double
  %m_cube_freevars = getelementptr inbounds i8, ptr %this, i64 136
  %4 = load double, ptr %m_cube_freevars, align 8
  %mul = fmul double %4, %conv9
  %cmp11 = fcmp ult double %mul, %conv
  br i1 %cmp11, label %lor.lhs.false20.thread, label %land.end36

lor.lhs.false20.thread:                           ; preds = %land.lhs.true8
  br label %land.end36

land.lhs.true16:                                  ; preds = %lor.lhs.false
  %call17 = tail call noundef double @_ZN3sat9lookahead9psat_heurEv(ptr noundef nonnull align 8 dereferenceable(1160) %this)
  %m_cube_psat_trigger = getelementptr inbounds i8, ptr %this, i64 160
  %5 = load double, ptr %m_cube_psat_trigger, align 8
  %cmp19 = fcmp ult double %call17, %5
  br i1 %cmp19, label %land.lhs.true16.lor.lhs.false20_crit_edge, label %land.end36

land.lhs.true16.lor.lhs.false20_crit_edge:        ; preds = %land.lhs.true16
  %.pre = load i32, ptr %m_cube_cutoff, align 4
  br label %lor.lhs.false20

lor.lhs.false20:                                  ; preds = %land.lhs.true16.lor.lhs.false20_crit_edge, %lor.lhs.false
  %6 = phi i32 [ %.pre, %land.lhs.true16.lor.lhs.false20_crit_edge ], [ %0, %lor.lhs.false ]
  switch i32 %6, label %land.end36 [
    i32 3, label %land.lhs.true24
    i32 4, label %land.rhs32
  ]

land.lhs.true24:                                  ; preds = %lor.lhs.false20
  %m_freevars25 = getelementptr inbounds i8, ptr %this, i64 960
  %7 = load i32, ptr %m_freevars25, align 8
  %conv27 = uitofp i32 %7 to double
  %m_freevars_threshold = getelementptr inbounds i8, ptr %this, i64 1056
  %8 = load double, ptr %m_freevars_threshold, align 8
  %cmp28 = fcmp ogt double %8, %conv27
  br i1 %cmp28, label %land.end36, label %lor.rhs.thread

lor.rhs.thread:                                   ; preds = %land.lhs.true24
  br label %land.end36

land.rhs32:                                       ; preds = %lor.lhs.false20
  %call33 = tail call noundef double @_ZN3sat9lookahead9psat_heurEv(ptr noundef nonnull align 8 dereferenceable(1160) %this)
  %m_psat_threshold = getelementptr inbounds i8, ptr %this, i64 1064
  %9 = load double, ptr %m_psat_threshold, align 8
  %cmp35 = fcmp oge double %call33, %9
  br label %land.end36

land.end36:                                       ; preds = %lor.lhs.false20.thread, %lor.lhs.false20, %lor.rhs.thread, %land.rhs, %land.lhs.true8, %land.lhs.true16, %land.lhs.true24, %land.rhs32, %entry
  %10 = phi i1 [ false, %entry ], [ true, %land.lhs.true24 ], [ true, %land.lhs.true16 ], [ true, %land.lhs.true8 ], [ %cmp35, %land.rhs32 ], [ true, %land.rhs ], [ false, %lor.rhs.thread ], [ false, %lor.lhs.false20 ], [ false, %lor.lhs.false20.thread ]
  ret i1 %10
}